target datalayout = "e-m:e-p270:32:32-p271:32:32-p272:64:64-i64:64-i128:128-f80:128-n8:16:32:64-S128"
target triple = "x86_64-pc-linux-gnu"

%"struct.open_spiel::gin_rummy::GinRummyUtils" = type { i32, i32, i32, i32, %"struct.open_spiel::gin_rummy::SuitComparator", %"struct.open_spiel::gin_rummy::RankComparator", %"class.std::map", %"class.std::map.0" }
%"struct.open_spiel::gin_rummy::SuitComparator" = type { i32 }
%"struct.open_spiel::gin_rummy::RankComparator" = type { i32 }
%"class.std::map" = type { %"class.std::_Rb_tree" }
%"class.std::_Rb_tree" = type { %"struct.std::_Rb_tree<int, std::pair<const int, std::vector<int>>, std::_Select1st<std::pair<const int, std::vector<int>>>, std::less<int>>::_Rb_tree_impl" }
%"struct.std::_Rb_tree<int, std::pair<const int, std::vector<int>>, std::_Select1st<std::pair<const int, std::vector<int>>>, std::less<int>>::_Rb_tree_impl" = type { [8 x i8], %"struct.std::_Rb_tree_header" }
%"struct.std::_Rb_tree_header" = type { %"struct.std::_Rb_tree_node_base", i64 }
%"struct.std::_Rb_tree_node_base" = type { i32, ptr, ptr, ptr }
%"class.std::map.0" = type { %"class.std::_Rb_tree.1" }
%"class.std::_Rb_tree.1" = type { %"struct.std::_Rb_tree<std::vector<int>, std::pair<const std::vector<int>, int>, std::_Select1st<std::pair<const std::vector<int>, int>>, std::less<std::vector<int>>>::_Rb_tree_impl" }
%"struct.std::_Rb_tree<std::vector<int>, std::pair<const std::vector<int>, int>, std::_Select1st<std::pair<const std::vector<int>, int>>, std::less<std::vector<int>>>::_Rb_tree_impl" = type { [8 x i8], %"struct.std::_Rb_tree_header" }
%"class.std::__cxx11::basic_string" = type { %"struct.std::__cxx11::basic_string<char>::_Alloc_hider", i64, %union.anon.9 }
%"struct.std::__cxx11::basic_string<char>::_Alloc_hider" = type { ptr }
%union.anon.9 = type { i64, [8 x i8] }

@.str.1 = private unnamed_addr constant [144 x i8] c"generated/home/dtcxzyw/WorkSpace/Projects/compilers/llvm-opt-benchmark/bench/openspiel/open_spiel/open_spiel/games/gin_rummy/gin_rummy_utils.cc\00", align 1
@.str.2 = private unnamed_addr constant [2 x i8] c":\00", align 1
@.str.3 = private unnamed_addr constant [2 x i8] c" \00", align 1
@.str.6 = private unnamed_addr constant [4 x i8] c" = \00", align 1
@_ZN10open_spiel9gin_rummyL9kRankCharE = internal constant [14 x i8] c"A23456789TJQK\00", align 1
@_ZN10open_spiel9gin_rummyL9kSuitCharE = internal constant [5 x i8] c"scdh\00", align 1
@.str.10 = private unnamed_addr constant [19 x i8] c"card.length() == 2\00", align 1
@.str.11 = private unnamed_addr constant [15 x i8] c"\0Acard.length()\00", align 1
@.str.12 = private unnamed_addr constant [7 x i8] c", 2 = \00", align 1

; Function Attrs: mustprogress uwtable
define noundef i32 @_ZNK10open_spiel9gin_rummy13GinRummyUtils7CardIntENSt7__cxx1112basic_stringIcSt11char_traitsIcESaIcEEE(ptr noundef nonnull align 8 dereferenceable(120) %0, ptr noundef %1) #4 align 2 personality ptr @__gxx_personality_v0 {
  %3 = alloca ptr, align 8
  %4 = alloca ptr, align 8
  %5 = alloca i64, align 8
  %6 = alloca i32, align 4
  %7 = alloca %"class.std::__cxx11::basic_string", align 8
  %8 = alloca i32, align 4
  %9 = alloca ptr, align 8
  %10 = alloca i32, align 4
  %11 = alloca i32, align 4
  %12 = alloca i32, align 4
  store ptr %0, ptr %3, align 8
  store ptr %1, ptr %4, align 8
  %13 = load ptr, ptr %3, align 8
  br label %14

14:                                               ; preds = %2
  %15 = call noundef i64 @_ZNKSt7__cxx1112basic_stringIcSt11char_traitsIcESaIcEE6lengthEv(ptr noundef nonnull align 8 dereferenceable(32) %1) #3
  store i64 %15, ptr %5, align 8
  store i32 2, ptr %6, align 4
  %16 = load i64, ptr %5, align 8
  %17 = load i32, ptr %6, align 4
  %18 = sext i32 %17 to i64
  %19 = icmp eq i64 %16, %18
  br i1 %19, label %26, label %20

20:                                               ; preds = %14
  store i32 53, ptr %8, align 4
  call void @_ZN10open_spiel8internal11SpielStrCatIJRA144_KcRA2_S2_iS6_RA19_S2_RA15_S2_RA4_S2_RmRA7_S2_RiEEENSt7__cxx1112basic_stringIcSt11char_traitsIcESaIcEEEDpOT_(ptr dead_on_unwind writable sret(%"class.std::__cxx11::basic_string") align 8 %7, ptr noundef nonnull align 1 dereferenceable(144) @.str.1, ptr noundef nonnull align 1 dereferenceable(2) @.str.2, ptr noundef nonnull align 4 dereferenceable(4) %8, ptr noundef nonnull align 1 dereferenceable(2) @.str.3, ptr noundef nonnull align 1 dereferenceable(19) @.str.10, ptr noundef nonnull align 1 dereferenceable(15) @.str.11, ptr noundef nonnull align 1 dereferenceable(4) @.str.6, ptr noundef nonnull align 8 dereferenceable(8) %5, ptr noundef nonnull align 1 dereferenceable(7) @.str.12, ptr noundef nonnull align 4 dereferenceable(4) %6)
  invoke void @_ZN10open_spiel15SpielFatalErrorERKNSt7__cxx1112basic_stringIcSt11char_traitsIcESaIcEEE(ptr noundef nonnull align 8 dereferenceable(32) %7) #15
          to label %21 unwind label %22

21:                                               ; preds = %20
  unreachable

22:                                               ; preds = %20
  %23 = landingpad { ptr, i32 }
          cleanup
  %24 = extractvalue { ptr, i32 } %23, 0
  store ptr %24, ptr %9, align 8
  %25 = extractvalue { ptr, i32 } %23, 1
  store i32 %25, ptr %10, align 4
  call void @_ZNSt7__cxx1112basic_stringIcSt11char_traitsIcESaIcEED1Ev(ptr noundef nonnull align 8 dereferenceable(32) %7) #3
  br label %48

26:                                               ; preds = %14
  br label %27

27:                                               ; preds = %26
  %28 = call noundef nonnull align 1 dereferenceable(1) ptr @_ZNSt7__cxx1112basic_stringIcSt11char_traitsIcESaIcEEixEm(ptr noundef nonnull align 8 dereferenceable(32) %1, i64 noundef 0)
  %29 = load i8, ptr %28, align 1
  %30 = sext i8 %29 to i32
  %31 = call noundef ptr @strchr(ptr noundef @_ZN10open_spiel9gin_rummyL9kRankCharE, i32 noundef %30) #16
  %32 = ptrtoint ptr %31 to i64
  %33 = sub i64 %32, ptrtoint (ptr @_ZN10open_spiel9gin_rummyL9kRankCharE to i64)
  %34 = trunc i64 %33 to i32
  store i32 %34, ptr %11, align 4
  %35 = call noundef nonnull align 1 dereferenceable(1) ptr @_ZNSt7__cxx1112basic_stringIcSt11char_traitsIcESaIcEEixEm(ptr noundef nonnull align 8 dereferenceable(32) %1, i64 noundef 1)
  %36 = load i8, ptr %35, align 1
  %37 = sext i8 %36 to i32
  %38 = call noundef ptr @strchr(ptr noundef @_ZN10open_spiel9gin_rummyL9kSuitCharE, i32 noundef %37) #16
  %39 = ptrtoint ptr %38 to i64
  %40 = sub i64 %39, ptrtoint (ptr @_ZN10open_spiel9gin_rummyL9kSuitCharE to i64)
  %41 = trunc i64 %40 to i32
  store i32 %41, ptr %12, align 4
  %42 = load i32, ptr %12, align 4
  %43 = getelementptr inbounds nuw %"struct.open_spiel::gin_rummy::GinRummyUtils", ptr %13, i32 0, i32 0
  %44 = load i32, ptr %43, align 8
  %45 = mul nsw i32 %42, %44
  %46 = load i32, ptr %11, align 4
  %47 = add nsw i32 %45, %46
  ret i32 %47

48:                                               ; preds = %22
  %49 = load ptr, ptr %9, align 8
  %50 = load i32, ptr %10, align 4
  %51 = insertvalue { ptr, i32 } poison, ptr %49, 0
  %52 = insertvalue { ptr, i32 } %51, i32 %50, 1
  resume { ptr, i32 } %52
}