; Function Attrs: mustprogress uwtable
define noundef i32 @_ZNK10open_spiel9gin_rummy13GinRummyUtils7CardIntENSt7__cxx1112basic_stringIcSt11char_traitsIcESaIcEEE(ptr nocapture noundef nonnull readonly align 8 dereferenceable(120) %0, ptr noundef nonnull %1) local_unnamed_addr #3 align 2 personality ptr @__gxx_personality_v0 {
  %3 = alloca i64, align 8
  %4 = alloca i32, align 4
  %5 = alloca %"class.std::__cxx11::basic_string", align 8
  %6 = alloca i32, align 4
  %7 = tail call noundef i64 @_ZNKSt7__cxx1112basic_stringIcSt11char_traitsIcESaIcEE6lengthEv(ptr noundef nonnull align 8 dereferenceable(32) %1) #23
  store i64 %7, ptr %3, align 8
  store i32 2, ptr %4, align 4
  %8 = icmp eq i64 %7, 2
  br i1 %8, label %13, label %9

9:                                                ; preds = %2
  store i32 53, ptr %6, align 4
  call void @_ZN10open_spiel8internal11SpielStrCatIJRA144_KcRA2_S2_iS6_RA19_S2_RA15_S2_RA4_S2_RmRA7_S2_RiEEENSt7__cxx1112basic_stringIcSt11char_traitsIcESaIcEEEDpOT_(ptr dead_on_unwind nonnull writable sret(%"class.std::__cxx11::basic_string") align 8 %5, ptr noundef nonnull align 1 dereferenceable(144) @.str.1, ptr noundef nonnull align 1 dereferenceable(2) @.str.2, ptr noundef nonnull align 4 dereferenceable(4) %6, ptr noundef nonnull align 1 dereferenceable(2) @.str.3, ptr noundef nonnull align 1 dereferenceable(19) @.str.10, ptr noundef nonnull align 1 dereferenceable(15) @.str.11, ptr noundef nonnull align 1 dereferenceable(4) @.str.6, ptr noundef nonnull align 8 dereferenceable(8) %3, ptr noundef nonnull align 1 dereferenceable(7) @.str.12, ptr noundef nonnull align 4 dereferenceable(4) %4)
  invoke void @_ZN10open_spiel15SpielFatalErrorERKNSt7__cxx1112basic_stringIcSt11char_traitsIcESaIcEEE(ptr noundef nonnull align 8 dereferenceable(32) %5) #24
          to label %10 unwind label %11

10:                                               ; preds = %9
  unreachable

11:                                               ; preds = %9
  %12 = landingpad { ptr, i32 }
          cleanup
  call void @_ZNSt7__cxx1112basic_stringIcSt11char_traitsIcESaIcEED1Ev(ptr noundef nonnull align 8 dereferenceable(32) %5) #23
  resume { ptr, i32 } %12

13:                                               ; preds = %2
  %14 = tail call noundef nonnull align 1 dereferenceable(1) ptr @_ZNSt7__cxx1112basic_stringIcSt11char_traitsIcESaIcEEixEm(ptr noundef nonnull align 8 dereferenceable(32) %1, i64 noundef 0)
  %15 = load i8, ptr %14, align 1
  %16 = sext i8 %15 to i32
  %memchr = tail call ptr @memchr(ptr noundef nonnull dereferenceable(1) @_ZN10open_spiel9gin_rummyL9kRankCharE, i32 %16, i64 14)
  %17 = ptrtoint ptr %memchr to i64
  %18 = trunc i64 %17 to i32
  %19 = add i32 %18, sub (i32 0, i32 ptrtoint (ptr @_ZN10open_spiel9gin_rummyL9kRankCharE to i32))
  %20 = tail call noundef nonnull align 1 dereferenceable(1) ptr @_ZNSt7__cxx1112basic_stringIcSt11char_traitsIcESaIcEEixEm(ptr noundef nonnull align 8 dereferenceable(32) %1, i64 noundef 1)
  %21 = load i8, ptr %20, align 1
  %22 = sext i8 %21 to i32
  %memchr4 = tail call ptr @memchr(ptr noundef nonnull dereferenceable(1) @_ZN10open_spiel9gin_rummyL9kSuitCharE, i32 %22, i64 5)
  %23 = ptrtoint ptr %memchr4 to i64
  %24 = trunc i64 %23 to i32
  %25 = sub i32 %24, ptrtoint (ptr @_ZN10open_spiel9gin_rummyL9kSuitCharE to i32)
  %26 = load i32, ptr %0, align 8
  %27 = mul nsw i32 %25, %26
  %28 = add nsw i32 %19, %27
  ret i32 %28
}